; Function Attrs: mustprogress nofree nounwind willreturn memory(read) uwtable
define dso_local noundef ptr @_ZN5clang7CodeGen15CodeGenFunction9stripCondEPKNS_4ExprE(ptr noundef nonnull readonly %0) local_unnamed_addr #11 align 2 {
  %2 = tail call noundef ptr @_ZN5clang4Expr12IgnoreParensEv(ptr noundef nonnull align 8 dereferenceable(16) %0) #23
  %3 = load i8, ptr %2, align 8
  %.not8 = icmp eq i8 %3, 4
  br i1 %.not8, label %.lr.ph, label %._crit_edge

.lr.ph:                                           ; preds = %1, %7
  %4 = phi ptr [ %10, %7 ], [ %2, %1 ]
  %5 = load i32, ptr %4, align 8
  %6 = and i32 %5, 8126464
  %.not6 = icmp eq i32 %6, 2359296
  br i1 %.not6, label %7, label %._crit_edge

7:                                                ; preds = %.lr.ph
  %8 = getelementptr inbounds nuw i8, ptr %4, i64 16
  %9 = load ptr, ptr %8, align 8
  %10 = tail call noundef ptr @_ZN5clang4Expr12IgnoreParensEv(ptr noundef nonnull align 8 dereferenceable(16) %9) #23
  %11 = load i8, ptr %10, align 8
  %.not = icmp eq i8 %11, 4
  br i1 %.not, label %.lr.ph, label %._crit_edge, !llvm.loop !168

._crit_edge:                                      ; preds = %7, %.lr.ph, %1
  %.lcssa = phi ptr [ %2, %1 ], [ %4, %.lr.ph ], [ %10, %7 ]
  ret ptr %.lcssa
}